; Function Attrs: mustprogress uwtable
define void @_ZNK3nix14StoreDirConfig13makeStorePathESt17basic_string_viewIcSt11char_traitsIcEERKNS_4HashES4_(ptr dead_on_unwind noalias writable sret(%"class.nix::StorePath") align 8 %0, ptr noundef nonnull align 8 dereferenceable(344) %1, i64 %2, ptr %3, ptr noundef nonnull align 8 dereferenceable(73) %4, ptr nocapture noundef readonly byval(%"class.std::basic_string_view") align 8 %5) local_unnamed_addr #5 align 2 personality ptr @__gxx_personality_v0 {
  %7 = alloca %"class.std::__cxx11::basic_string", align 8
  call void @_ZNK3nix4Hash9to_stringB5cxx11ENS_10HashFormatEb(ptr dead_on_unwind nonnull writable sret(%"class.std::__cxx11::basic_string") align 8 %7, ptr noundef nonnull align 8 dereferenceable(73) %4, i32 noundef 2, i1 noundef zeroext true)
  %8 = load ptr, ptr %7, align 8
  %9 = getelementptr inbounds i8, ptr %7, i64 8
  %10 = load i64, ptr %9, align 8
  invoke void @_ZNK3nix14StoreDirConfig13makeStorePathESt17basic_string_viewIcSt11char_traitsIcEES4_S4_(ptr dead_on_unwind writable sret(%"class.nix::StorePath") align 8 %0, ptr noundef nonnull align 8 dereferenceable(344) %1, i64 %2, ptr %3, i64 %10, ptr %8, ptr noundef nonnull byval(%"class.std::basic_string_view") align 8 %5)
          to label %11 unwind label %17

11:                                               ; preds = %6
  %12 = load ptr, ptr %7, align 8
  %13 = getelementptr inbounds i8, ptr %7, i64 16
  %14 = icmp eq ptr %12, %13
  br i1 %14, label %_ZNKSt7__cxx1112basic_stringIcSt11char_traitsIcESaIcEE11_M_is_localEv.exit.thread.i.i, label %_ZNKSt7__cxx1112basic_stringIcSt11char_traitsIcESaIcEE11_M_is_localEv.exit.i.i

_ZNKSt7__cxx1112basic_stringIcSt11char_traitsIcESaIcEE11_M_is_localEv.exit.thread.i.i: ; preds = %11
  %15 = load i64, ptr %9, align 8
  %16 = icmp ult i64 %15, 16
  call void @llvm.assume(i1 %16)
  br label %_ZNSt7__cxx1112basic_stringIcSt11char_traitsIcESaIcEED2Ev.exit

_ZNKSt7__cxx1112basic_stringIcSt11char_traitsIcESaIcEE11_M_is_localEv.exit.i.i: ; preds = %11
  call void @_ZdlPv(ptr noundef %12) #34
  br label %_ZNSt7__cxx1112basic_stringIcSt11char_traitsIcESaIcEED2Ev.exit

_ZNSt7__cxx1112basic_stringIcSt11char_traitsIcESaIcEED2Ev.exit: ; preds = %_ZNKSt7__cxx1112basic_stringIcSt11char_traitsIcESaIcEE11_M_is_localEv.exit.thread.i.i, %_ZNKSt7__cxx1112basic_stringIcSt11char_traitsIcESaIcEE11_M_is_localEv.exit.i.i
  call void @_ZNSaIcED2Ev(ptr noundef nonnull align 1 dereferenceable(1) %7) #31
  ret void

17:                                               ; preds = %6
  %18 = landingpad { ptr, i32 }
          cleanup
  call void @_ZNSt7__cxx1112basic_stringIcSt11char_traitsIcESaIcEED2Ev(ptr noundef nonnull align 8 dereferenceable(32) %7) #31
  resume { ptr, i32 } %18
}